target datalayout = "e-m:e-p270:32:32-p271:32:32-p272:64:64-i64:64-i128:128-f80:128-n8:16:32:64-S128"
target triple = "x86_64-pc-linux-gnu"

%"struct.eliminate_predicates::clause" = type <{ %class.ptr_vector, %class.vector.0, %class.obj_ref, %class.obj_ref.1, i32, i8, [3 x i8] }>
%class.ptr_vector = type { %class.vector }
%class.vector = type { ptr }
%class.vector.0 = type { ptr }
%class.obj_ref = type { ptr, ptr }
%class.obj_ref.1 = type { ptr, ptr }
%class.app = type { %class.expr, ptr, i32, %struct.app_flags, [0 x ptr] }
%class.expr = type { %class.ast }
%class.ast = type { i32, i32, i32, i32 }
%struct.app_flags = type <{ i16, i8, i8 }>
%class.anon.79 = type { ptr, ptr }
%class.anon.80 = type { ptr, ptr }

; Function Attrs: mustprogress nounwind uwtable
define linkonce_odr hidden noundef i32 @_ZNK3ast8get_kindEv(ptr noundef nonnull align 4 dereferenceable(16) %0) #6 comdat align 2 {
  %2 = alloca ptr, align 8
  store ptr %0, ptr %2, align 8, !tbaa !46
  %3 = load ptr, ptr %2, align 8
  %4 = getelementptr inbounds nuw %class.ast, ptr %3, i32 0, i32 1
  %5 = load i32, ptr %4, align 4
  %6 = and i32 %5, 65535
  ret i32 %6
}

; Function Attrs: mustprogress nounwind uwtable
define linkonce_odr hidden noundef i32 @_ZNK3app12get_num_argsEv(ptr noundef nonnull align 8 dereferenceable(32) %0) #6 comdat align 2 {
  %2 = alloca ptr, align 8
  store ptr %0, ptr %2, align 8, !tbaa !104
  %3 = load ptr, ptr %2, align 8
  %4 = getelementptr inbounds nuw %class.app, ptr %3, i32 0, i32 2
  %5 = load i32, ptr %4, align 8, !tbaa !123
  ret i32 %5
}

; Function Attrs: mustprogress nounwind uwtable
define linkonce_odr hidden noundef i32 @_ZNK6vectorIP4sortLb0EjE4sizeEv(ptr noundef nonnull align 8 dereferenceable(8) %0) #6 comdat align 2 {
  %2 = alloca i32, align 4
  %3 = alloca ptr, align 8
  store ptr %0, ptr %3, align 8, !tbaa !36
  %4 = load ptr, ptr %3, align 8
  %5 = getelementptr inbounds nuw %class.vector, ptr %4, i32 0, i32 0
  %6 = load ptr, ptr %5, align 8, !tbaa !38
  %7 = icmp eq ptr %6, null
  br i1 %7, label %8, label %9

8:                                                ; preds = %1
  store i32 0, ptr %2, align 4
  br label %14

9:                                                ; preds = %1
  %10 = getelementptr inbounds nuw %class.vector, ptr %4, i32 0, i32 0
  %11 = load ptr, ptr %10, align 8, !tbaa !38
  %12 = getelementptr inbounds i32, ptr %11, i64 -1
  %13 = load i32, ptr %12, align 4, !tbaa !48
  store i32 %13, ptr %2, align 4
  br label %14

14:                                               ; preds = %9, %8
  %15 = load i32, ptr %2, align 4
  ret i32 %15
}

; Function Attrs: inlinehint mustprogress nounwind uwtable
define linkonce_odr hidden noundef zeroext i1 @_Z6is_appPK3ast(ptr noundef %0) #8 comdat {
  %2 = alloca ptr, align 8
  store ptr %0, ptr %2, align 8, !tbaa !46
  %3 = load ptr, ptr %2, align 8, !tbaa !46
  %4 = call noundef i32 @_ZNK3ast8get_kindEv(ptr noundef nonnull align 4 dereferenceable(16) %3)
  %5 = icmp eq i32 %4, 0
  ret i1 %5
}

; Function Attrs: mustprogress nounwind uwtable
define linkonce_odr hidden noundef ptr @_ZNK3app8get_declEv(ptr noundef nonnull align 8 dereferenceable(32) %0) #6 comdat align 2 {
  %2 = alloca ptr, align 8
  store ptr %0, ptr %2, align 8, !tbaa !104
  %3 = load ptr, ptr %2, align 8
  %4 = getelementptr inbounds nuw %class.app, ptr %3, i32 0, i32 1
  %5 = load ptr, ptr %4, align 8, !tbaa !106
  ret ptr %5
}

; Function Attrs: inlinehint mustprogress nounwind uwtable
define linkonce_odr hidden noundef ptr @_Z6to_appP3ast(ptr noundef %0) #8 comdat {
  %2 = alloca ptr, align 8
  store ptr %0, ptr %2, align 8, !tbaa !46
  %3 = load ptr, ptr %2, align 8, !tbaa !46
  ret ptr %3
}

; Function Attrs: inlinehint mustprogress uwtable
define internal noundef zeroext i1 @"_ZZN20eliminate_predicates14try_find_macroERNS_6clauseEENK3$_0clEP4exprS4_"(ptr noundef nonnull align 8 dereferenceable(16) %0, ptr noundef %1, ptr noundef %2) #7 align 2 {
  %4 = alloca i1, align 1
  %5 = alloca ptr, align 8
  %6 = alloca ptr, align 8
  %7 = alloca ptr, align 8
  %8 = alloca ptr, align 8
  store ptr %0, ptr %5, align 8, !tbaa !189
  store ptr %1, ptr %6, align 8, !tbaa !97
  store ptr %2, ptr %7, align 8, !tbaa !97
  %9 = load ptr, ptr %5, align 8
  %10 = getelementptr inbounds nuw %class.anon.79, ptr %9, i32 0, i32 0
  %11 = load ptr, ptr %10, align 8, !tbaa !308
  %12 = load ptr, ptr %6, align 8, !tbaa !97
  %13 = call noundef zeroext i1 @_Z6is_appPK3ast(ptr noundef %12)
  br i1 %13, label %15, label %14

14:                                               ; preds = %3
  store i1 false, ptr %4, align 1
  br label %43

15:                                               ; preds = %3
  call void @llvm.lifetime.start.p0(i64 8, ptr %8) #3
  %16 = load ptr, ptr %6, align 8, !tbaa !97
  %17 = call noundef ptr @_Z6to_appP3ast(ptr noundef %16)
  store ptr %17, ptr %8, align 8, !tbaa !104
  %18 = load ptr, ptr %8, align 8, !tbaa !104
  %19 = getelementptr inbounds nuw %class.anon.79, ptr %9, i32 0, i32 1
  %20 = load ptr, ptr %19, align 8, !tbaa !330
  %21 = getelementptr inbounds nuw %"struct.eliminate_predicates::clause", ptr %20, i32 0, i32 0
  %22 = call noundef i32 @_ZNK6vectorIP4sortLb0EjE4sizeEv(ptr noundef nonnull align 8 dereferenceable(8) %21)
  %23 = call noundef zeroext i1 @_ZN20eliminate_predicates17can_be_macro_headEP4exprj(ptr noundef nonnull align 8 dereferenceable(400) %11, ptr noundef %18, i32 noundef %22)
  br i1 %23, label %24, label %41

24:                                               ; preds = %15
  %25 = load ptr, ptr %7, align 8, !tbaa !97
  %26 = call noundef zeroext i1 @_ZN20eliminate_predicates13is_macro_safeEP4expr(ptr noundef nonnull align 8 dereferenceable(400) %11, ptr noundef %25)
  br i1 %26, label %27, label %41

27:                                               ; preds = %24
  %28 = load ptr, ptr %8, align 8, !tbaa !104
  %29 = call noundef i32 @_ZNK3app12get_num_argsEv(ptr noundef nonnull align 8 dereferenceable(32) %28)
  %30 = getelementptr inbounds nuw %class.anon.79, ptr %9, i32 0, i32 1
  %31 = load ptr, ptr %30, align 8, !tbaa !330
  %32 = getelementptr inbounds nuw %"struct.eliminate_predicates::clause", ptr %31, i32 0, i32 0
  %33 = call noundef i32 @_ZNK6vectorIP4sortLb0EjE4sizeEv(ptr noundef nonnull align 8 dereferenceable(8) %32)
  %34 = icmp eq i32 %29, %33
  br i1 %34, label %35, label %41

35:                                               ; preds = %27
  %36 = load ptr, ptr %8, align 8, !tbaa !104
  %37 = call noundef ptr @_ZNK3app8get_declEv(ptr noundef nonnull align 8 dereferenceable(32) %36)
  %38 = load ptr, ptr %7, align 8, !tbaa !97
  %39 = call noundef zeroext i1 @_Z6occursP9func_declP4expr(ptr noundef %37, ptr noundef %38)
  %40 = xor i1 %39, true
  br label %41

41:                                               ; preds = %35, %27, %24, %15
  %42 = phi i1 [ false, %27 ], [ false, %24 ], [ false, %15 ], [ %40, %35 ]
  store i1 %42, ptr %4, align 1
  call void @llvm.lifetime.end.p0(i64 8, ptr %8) #3
  br label %43

43:                                               ; preds = %41, %14
  %44 = load i1, ptr %4, align 1
  ret i1 %44
}

; Function Attrs: inlinehint mustprogress uwtable
define internal noundef zeroext i1 @"_ZZN20eliminate_predicates14try_find_macroERNS_6clauseEENK3$_1clEP4exprS4_S4_"(ptr noundef nonnull align 8 dereferenceable(16) %0, ptr noundef %1, ptr noundef %2, ptr noundef %3) #7 align 2 {
  %5 = alloca ptr, align 8
  %6 = alloca ptr, align 8
  %7 = alloca ptr, align 8
  %8 = alloca ptr, align 8
  store ptr %0, ptr %5, align 8, !tbaa !189
  store ptr %1, ptr %6, align 8, !tbaa !97
  store ptr %2, ptr %7, align 8, !tbaa !97
  store ptr %3, ptr %8, align 8, !tbaa !97
  %9 = load ptr, ptr %5, align 8
  %10 = getelementptr inbounds nuw %class.anon.80, ptr %9, i32 0, i32 1
  %11 = load ptr, ptr %10, align 8, !tbaa !310
  %12 = getelementptr inbounds nuw %class.anon.80, ptr %9, i32 0, i32 0
  %13 = load ptr, ptr %12, align 8, !tbaa !331
  %14 = load ptr, ptr %6, align 8, !tbaa !97
  %15 = load ptr, ptr %7, align 8, !tbaa !97
  %16 = call noundef zeroext i1 @"_ZZN20eliminate_predicates14try_find_macroERNS_6clauseEENK3$_0clEP4exprS4_"(ptr noundef nonnull align 8 dereferenceable(16) %13, ptr noundef %14, ptr noundef %15)
  br i1 %16, label %17, label %26

17:                                               ; preds = %4
  %18 = load ptr, ptr %6, align 8, !tbaa !97
  %19 = call noundef ptr @_Z6to_appP3ast(ptr noundef %18)
  %20 = call noundef ptr @_ZNK3app8get_declEv(ptr noundef nonnull align 8 dereferenceable(32) %19)
  %21 = load ptr, ptr %8, align 8, !tbaa !97
  %22 = call noundef zeroext i1 @_Z6occursP9func_declP4expr(ptr noundef %20, ptr noundef %21)
  br i1 %22, label %26, label %23

23:                                               ; preds = %17
  %24 = load ptr, ptr %8, align 8, !tbaa !97
  %25 = call noundef zeroext i1 @_ZN20eliminate_predicates13is_macro_safeEP4expr(ptr noundef nonnull align 8 dereferenceable(400) %11, ptr noundef %24)
  br label %26

26:                                               ; preds = %23, %17, %4
  %27 = phi i1 [ false, %17 ], [ false, %4 ], [ %25, %23 ]
  ret i1 %27
}