; Function Attrs: inlinehint mustprogress uwtable
define internal fastcc noundef zeroext i1 @"_ZZN20eliminate_predicates14try_find_macroERNS_6clauseEENK3$_1clEP4exprS4_S4_"(ptr readonly captures(none) %.0.val, ptr %.8.val, ptr noundef captures(address) %0, ptr noundef %1, ptr noundef %2) unnamed_addr #8 align 2 {
  %4 = load ptr, ptr %.0.val, align 8, !tbaa !268
  %5 = getelementptr inbounds nuw i8, ptr %0, i64 4
  %6 = load i32, ptr %5, align 4
  %7 = and i32 %6, 65535
  %8 = icmp eq i32 %7, 0
  br i1 %8, label %9, label %"_ZZN20eliminate_predicates14try_find_macroERNS_6clauseEENK3$_0clEP4exprS4_.exit.thread"

9:                                                ; preds = %3
  %10 = getelementptr inbounds nuw i8, ptr %.0.val, i64 8
  %11 = load ptr, ptr %10, align 8, !tbaa !285
  %12 = load ptr, ptr %11, align 8, !tbaa !10
  %13 = icmp eq ptr %12, null
  br i1 %13, label %_ZNK6vectorIP4sortLb0EjE4sizeEv.exit.i, label %14

14:                                               ; preds = %9
  %15 = getelementptr inbounds i8, ptr %12, i64 -4
  %16 = load i32, ptr %15, align 4, !tbaa !14
  br label %_ZNK6vectorIP4sortLb0EjE4sizeEv.exit.i

_ZNK6vectorIP4sortLb0EjE4sizeEv.exit.i:           ; preds = %14, %9
  %.0.i.i = phi i32 [ %16, %14 ], [ 0, %9 ]
  %17 = tail call noundef zeroext i1 @_ZN20eliminate_predicates17can_be_macro_headEP4exprj(ptr noundef nonnull align 8 dereferenceable(400) %4, ptr noundef nonnull %0, i32 noundef %.0.i.i)
  br i1 %17, label %18, label %"_ZZN20eliminate_predicates14try_find_macroERNS_6clauseEENK3$_0clEP4exprS4_.exit.thread"

18:                                               ; preds = %_ZNK6vectorIP4sortLb0EjE4sizeEv.exit.i
  %19 = tail call noundef zeroext i1 @_ZN20eliminate_predicates13is_macro_safeEP4expr(ptr noundef nonnull align 8 dereferenceable(400) %4, ptr noundef %1)
  br i1 %19, label %20, label %"_ZZN20eliminate_predicates14try_find_macroERNS_6clauseEENK3$_0clEP4exprS4_.exit.thread"

20:                                               ; preds = %18
  %21 = getelementptr inbounds nuw i8, ptr %0, i64 24
  %22 = load i32, ptr %21, align 8, !tbaa !82
  %23 = load ptr, ptr %10, align 8, !tbaa !285
  %24 = load ptr, ptr %23, align 8, !tbaa !10
  %25 = icmp eq ptr %24, null
  br i1 %25, label %_ZNK6vectorIP4sortLb0EjE4sizeEv.exit10.i, label %26

26:                                               ; preds = %20
  %27 = getelementptr inbounds i8, ptr %24, i64 -4
  %28 = load i32, ptr %27, align 4, !tbaa !14
  br label %_ZNK6vectorIP4sortLb0EjE4sizeEv.exit10.i

_ZNK6vectorIP4sortLb0EjE4sizeEv.exit10.i:         ; preds = %26, %20
  %.0.i9.i = phi i32 [ %28, %26 ], [ 0, %20 ]
  %29 = icmp eq i32 %22, %.0.i9.i
  br i1 %29, label %"_ZZN20eliminate_predicates14try_find_macroERNS_6clauseEENK3$_0clEP4exprS4_.exit", label %"_ZZN20eliminate_predicates14try_find_macroERNS_6clauseEENK3$_0clEP4exprS4_.exit.thread"

"_ZZN20eliminate_predicates14try_find_macroERNS_6clauseEENK3$_0clEP4exprS4_.exit": ; preds = %_ZNK6vectorIP4sortLb0EjE4sizeEv.exit10.i
  %30 = getelementptr inbounds nuw i8, ptr %0, i64 16
  %31 = load ptr, ptr %30, align 8, !tbaa !64
  %32 = tail call noundef zeroext i1 @_Z6occursP9func_declP4expr(ptr noundef %31, ptr noundef %1)
  br i1 %32, label %"_ZZN20eliminate_predicates14try_find_macroERNS_6clauseEENK3$_0clEP4exprS4_.exit.thread", label %33

33:                                               ; preds = %"_ZZN20eliminate_predicates14try_find_macroERNS_6clauseEENK3$_0clEP4exprS4_.exit"
  %34 = load ptr, ptr %30, align 8, !tbaa !64
  %35 = tail call noundef zeroext i1 @_Z6occursP9func_declP4expr(ptr noundef %34, ptr noundef %2)
  br i1 %35, label %"_ZZN20eliminate_predicates14try_find_macroERNS_6clauseEENK3$_0clEP4exprS4_.exit.thread", label %36

36:                                               ; preds = %33
  %37 = tail call noundef zeroext i1 @_ZN20eliminate_predicates13is_macro_safeEP4expr(ptr noundef nonnull align 8 dereferenceable(400) %.8.val, ptr noundef %2)
  br label %"_ZZN20eliminate_predicates14try_find_macroERNS_6clauseEENK3$_0clEP4exprS4_.exit.thread"

"_ZZN20eliminate_predicates14try_find_macroERNS_6clauseEENK3$_0clEP4exprS4_.exit.thread": ; preds = %_ZNK6vectorIP4sortLb0EjE4sizeEv.exit.i, %18, %_ZNK6vectorIP4sortLb0EjE4sizeEv.exit10.i, %3, %36, %33, %"_ZZN20eliminate_predicates14try_find_macroERNS_6clauseEENK3$_0clEP4exprS4_.exit"
  %38 = phi i1 [ false, %33 ], [ false, %"_ZZN20eliminate_predicates14try_find_macroERNS_6clauseEENK3$_0clEP4exprS4_.exit" ], [ %37, %36 ], [ false, %3 ], [ false, %_ZNK6vectorIP4sortLb0EjE4sizeEv.exit10.i ], [ false, %18 ], [ false, %_ZNK6vectorIP4sortLb0EjE4sizeEv.exit.i ]
  ret i1 %38
}